; Function Attrs: nounwind uwtable
define void @TS_VERIFY_CTX_free(ptr noundef %0) local_unnamed_addr #0 {
  %.not = icmp eq ptr %0, null
  br i1 %.not, label %18, label %TS_VERIFY_CTX_cleanup.exit

TS_VERIFY_CTX_cleanup.exit:                       ; preds = %1
  %2 = getelementptr inbounds nuw i8, ptr %0, i64 8
  %3 = load ptr, ptr %2, align 8, !tbaa !3
  tail call void @X509_STORE_free(ptr noundef %3) #7
  %4 = getelementptr inbounds nuw i8, ptr %0, i64 16
  %5 = load ptr, ptr %4, align 8, !tbaa !17
  tail call void @OSSL_STACK_OF_X509_free(ptr noundef %5) #7
  %6 = getelementptr inbounds nuw i8, ptr %0, i64 24
  %7 = load ptr, ptr %6, align 8, !tbaa !18
  tail call void @ASN1_OBJECT_free(ptr noundef %7) #7
  %8 = getelementptr inbounds nuw i8, ptr %0, i64 32
  %9 = load ptr, ptr %8, align 8, !tbaa !19
  tail call void @X509_ALGOR_free(ptr noundef %9) #7
  %10 = getelementptr inbounds nuw i8, ptr %0, i64 40
  %11 = load ptr, ptr %10, align 8, !tbaa !20
  tail call void @CRYPTO_free(ptr noundef %11, ptr noundef nonnull @.str, i32 noundef 126) #7
  %12 = getelementptr inbounds nuw i8, ptr %0, i64 56
  %13 = load ptr, ptr %12, align 8, !tbaa !21
  tail call void @BIO_free_all(ptr noundef %13) #7
  %14 = getelementptr inbounds nuw i8, ptr %0, i64 64
  %15 = load ptr, ptr %14, align 8, !tbaa !22
  tail call void @ASN1_INTEGER_free(ptr noundef %15) #7
  %16 = getelementptr inbounds nuw i8, ptr %0, i64 72
  %17 = load ptr, ptr %16, align 8, !tbaa !23
  tail call void @GENERAL_NAME_free(ptr noundef %17) #7
  tail call void @llvm.memset.p0.i64(ptr noundef nonnull align 8 dereferenceable(80) %0, i8 0, i64 80, i1 false)
  tail call void @CRYPTO_free(ptr noundef nonnull %0, ptr noundef nonnull @.str, i32 noundef 34) #7
  br label %18

18:                                               ; preds = %1, %TS_VERIFY_CTX_cleanup.exit
  ret void
}